target datalayout = "e-m:e-p270:32:32-p271:32:32-p272:64:64-i64:64-i128:128-f80:128-n8:16:32:64-S128"
target triple = "x86_64-pc-linux-gnu"

%union.pthread_attr_t = type { i64, [48 x i8] }

; Function Attrs: nounwind uwtable
define hidden void @SplashCreateThread(ptr noundef %0) #0 {
  %2 = alloca ptr, align 8
  %3 = alloca i64, align 8
  %4 = alloca %union.pthread_attr_t, align 8
  %5 = alloca i32, align 4
  %6 = alloca i32, align 4
  store ptr %0, ptr %2, align 8
  %7 = call i32 @pthread_attr_init(ptr noundef %4) #7
  store i32 %7, ptr %6, align 4
  %8 = load i32, ptr %6, align 4
  %9 = icmp ne i32 %8, 0
  br i1 %9, label %10, label %11

10:                                               ; preds = %1
  br label %15

11:                                               ; preds = %1
  %12 = load ptr, ptr %2, align 8
  %13 = call i32 @pthread_create(ptr noundef %3, ptr noundef %4, ptr noundef @SplashScreenThread, ptr noundef %12) #7
  store i32 %13, ptr %5, align 4
  %14 = call i32 @pthread_attr_destroy(ptr noundef %4) #7
  br label %15

15:                                               ; preds = %11, %10
  ret void
}