; Function Attrs: nounwind uwtable
define hidden void @SplashCreateThread(ptr noundef %0) local_unnamed_addr #0 {
  %2 = alloca i64, align 8
  %3 = alloca %union.pthread_attr_t, align 8
  %4 = call i32 @pthread_attr_init(ptr noundef nonnull %3) #16
  %.not = icmp eq i32 %4, 0
  br i1 %.not, label %5, label %8

5:                                                ; preds = %1
  %6 = call i32 @pthread_create(ptr noundef nonnull %2, ptr noundef nonnull %3, ptr noundef nonnull @SplashScreenThread, ptr noundef %0) #16
  %7 = call i32 @pthread_attr_destroy(ptr noundef nonnull %3) #16
  br label %8

8:                                                ; preds = %1, %5
  ret void
}